; ModuleID = '34/2498.c'
source_filename = "34/2498.c"
target datalayout = "e-m:e-p270:32:32-p271:32:32-p272:64:64-i64:64-f80:128-n8:16:32:64-S128"
target triple = "x86_64-pc-linux-gnu"

@.str = private unnamed_addr constant [3 x i8] c"%d\00", align 1
@.str.1 = private unnamed_addr constant [9 x i8] c"%d/2=%d\0A\00", align 1
@.str.2 = private unnamed_addr constant [11 x i8] c"%d*3+1=%d\0A\00", align 1
@.str.3 = private unnamed_addr constant [5 x i8] c"End\0A\00", align 1

; Function Attrs: noinline nounwind uwtable
define dso_local i32 @main() #0 {
  %1 = alloca i32, align 4
  %2 = alloca i32, align 4
  store i32 0, i32* %1, align 4
  %3 = call i32 (i8*, ...) @__isoc99_scanf(i8* getelementptr inbounds ([3 x i8], [3 x i8]* @.str, i64 0, i64 0), i32* %2)
  br label %4

4:                                                ; preds = %33, %0
  %5 = load i32, i32* %2, align 4
  %6 = srem i32 %5, 2
  %7 = icmp eq i32 %6, 0
  br i1 %7, label %8, label %34

8:                                                ; preds = %4
  %9 = load i32, i32* %2, align 4
  %10 = sdiv i32 %9, 2
  store i32 %10, i32* %2, align 4
  %11 = load i32, i32* %2, align 4
  %12 = mul nsw i32 %11, 2
  %13 = load i32, i32* %2, align 4
  %14 = call i32 (i8*, ...) @printf(i8* getelementptr inbounds ([9 x i8], [9 x i8]* @.str.1, i64 0, i64 0), i32 %12, i32 %13)
  br label %15

15:                                               ; preds = %24, %8
  %16 = load i32, i32* %2, align 4
  %17 = srem i32 %16, 2
  %18 = icmp ne i32 %17, 0
  br i1 %18, label %19, label %22

19:                                               ; preds = %15
  %20 = load i32, i32* %2, align 4
  %21 = icmp ne i32 %20, 1
  br label %22

22:                                               ; preds = %19, %15
  %23 = phi i1 [ false, %15 ], [ %21, %19 ]
  br i1 %23, label %24, label %33

24:                                               ; preds = %22
  %25 = load i32, i32* %2, align 4
  %26 = mul nsw i32 %25, 3
  %27 = add nsw i32 %26, 1
  store i32 %27, i32* %2, align 4
  %28 = load i32, i32* %2, align 4
  %29 = sub nsw i32 %28, 1
  %30 = sdiv i32 %29, 3
  %31 = load i32, i32* %2, align 4
  %32 = call i32 (i8*, ...) @printf(i8* getelementptr inbounds ([11 x i8], [11 x i8]* @.str.2, i64 0, i64 0), i32 %30, i32 %31)
  br label %15

33:                                               ; preds = %22
  br label %4

34:                                               ; preds = %4
  br label %35

35:                                               ; preds = %64, %34
  %36 = load i32, i32* %2, align 4
  %37 = srem i32 %36, 2
  %38 = icmp ne i32 %37, 0
  br i1 %38, label %39, label %42

39:                                               ; preds = %35
  %40 = load i32, i32* %2, align 4
  %41 = icmp ne i32 %40, 1
  br label %42

42:                                               ; preds = %39, %35
  %43 = phi i1 [ false, %35 ], [ %41, %39 ]
  br i1 %43, label %44, label %65

44:                                               ; preds = %42
  %45 = load i32, i32* %2, align 4
  %46 = mul nsw i32 %45, 3
  %47 = add nsw i32 %46, 1
  store i32 %47, i32* %2, align 4
  %48 = load i32, i32* %2, align 4
  %49 = sub nsw i32 %48, 1
  %50 = sdiv i32 %49, 3
  %51 = load i32, i32* %2, align 4
  %52 = call i32 (i8*, ...) @printf(i8* getelementptr inbounds ([11 x i8], [11 x i8]* @.str.2, i64 0, i64 0), i32 %50, i32 %51)
  br label %53

53:                                               ; preds = %57, %44
  %54 = load i32, i32* %2, align 4
  %55 = srem i32 %54, 2
  %56 = icmp eq i32 %55, 0
  br i1 %56, label %57, label %64

57:                                               ; preds = %53
  %58 = load i32, i32* %2, align 4
  %59 = sdiv i32 %58, 2
  store i32 %59, i32* %2, align 4
  %60 = load i32, i32* %2, align 4
  %61 = mul nsw i32 %60, 2
  %62 = load i32, i32* %2, align 4
  %63 = call i32 (i8*, ...) @printf(i8* getelementptr inbounds ([9 x i8], [9 x i8]* @.str.1, i64 0, i64 0), i32 %61, i32 %62)
  br label %53

64:                                               ; preds = %53
  br label %35

65:                                               ; preds = %42
  %66 = load i32, i32* %2, align 4
  %67 = icmp eq i32 %66, 1
  br i1 %67, label %68, label %70

68:                                               ; preds = %65
  %69 = call i32 (i8*, ...) @printf(i8* getelementptr inbounds ([5 x i8], [5 x i8]* @.str.3, i64 0, i64 0))
  br label %70

70:                                               ; preds = %68, %65
  %71 = load i32, i32* %1, align 4
  ret i32 %71
}

declare dso_local i32 @__isoc99_scanf(i8*, ...) #1

declare dso_local i32 @printf(i8*, ...) #1


!llvm.module.flags = !{!0}
!llvm.ident = !{!1}

!0 = !{i32 1, !"wchar_size", i32 4}
!1 = !{!"clang version 10.0.0-4ubuntu1 "}
