; ModuleID = 'source-C-CXX/33/2498.c'
source_filename = "source-C-CXX/33/2498.c"
target datalayout = "e-m:e-p270:32:32-p271:32:32-p272:64:64-i64:64-f80:128-n8:16:32:64-S128"
target triple = "x86_64-pc-linux-gnu"

@.str = private unnamed_addr constant [3 x i8] c"%d\00", align 1
@.str.1 = private unnamed_addr constant [9 x i8] c"%d/2=%d\0A\00", align 1
@.str.2 = private unnamed_addr constant [11 x i8] c"%d*3+1=%d\0A\00", align 1
@str = private unnamed_addr constant [4 x i8] c"End\00", align 1

; Function Attrs: nofree nounwind sspstrong uwtable
define dso_local i32 @main() local_unnamed_addr #0 {
  %1 = alloca i32, align 4
  %2 = bitcast i32* %1 to i8*
  call void @llvm.lifetime.start.p0i8(i64 4, i8* nonnull %2) #4
  %3 = call i32 (i8*, ...) @__isoc99_scanf(i8* getelementptr inbounds ([3 x i8], [3 x i8]* @.str, i64 0, i64 0), i32* nonnull %1)
  %4 = load i32, i32* %1, align 4, !tbaa !5
  %5 = and i32 %4, 1
  %6 = icmp eq i32 %5, 0
  br i1 %6, label %14, label %11

7:                                                ; preds = %24, %14
  %8 = phi i32 [ %20, %14 ], [ %30, %24 ]
  %9 = phi i32 [ %19, %14 ], [ %29, %24 ]
  %10 = icmp eq i32 %8, 0
  br i1 %10, label %14, label %11, !llvm.loop !9

11:                                               ; preds = %7, %0
  %12 = phi i32 [ %4, %0 ], [ %9, %7 ]
  %13 = icmp eq i32 %12, 1
  br i1 %13, label %53, label %37

14:                                               ; preds = %0, %7
  %15 = phi i32 [ %9, %7 ], [ %4, %0 ]
  %16 = sdiv i32 %15, 2
  store i32 %16, i32* %1, align 4, !tbaa !5
  %17 = shl nsw i32 %16, 1
  %18 = call i32 (i8*, ...) @printf(i8* nonnull dereferenceable(1) getelementptr inbounds ([9 x i8], [9 x i8]* @.str.1, i64 0, i64 0), i32 %17, i32 %16)
  %19 = load i32, i32* %1, align 4, !tbaa !5
  %20 = and i32 %19, 1
  %21 = icmp ne i32 %20, 0
  %22 = icmp ne i32 %19, 1
  %23 = and i1 %22, %21
  br i1 %23, label %24, label %7

24:                                               ; preds = %14, %24
  %25 = phi i32 [ %29, %24 ], [ %19, %14 ]
  %26 = mul nsw i32 %25, 3
  %27 = add nsw i32 %26, 1
  store i32 %27, i32* %1, align 4, !tbaa !5
  %28 = call i32 (i8*, ...) @printf(i8* nonnull dereferenceable(1) getelementptr inbounds ([11 x i8], [11 x i8]* @.str.2, i64 0, i64 0), i32 %25, i32 %27)
  %29 = load i32, i32* %1, align 4, !tbaa !5
  %30 = and i32 %29, 1
  %31 = icmp ne i32 %30, 0
  %32 = icmp ne i32 %29, 1
  %33 = and i1 %32, %31
  br i1 %33, label %24, label %7, !llvm.loop !11

34:                                               ; preds = %45, %37
  %35 = phi i32 [ %42, %37 ], [ %50, %45 ]
  %36 = icmp eq i32 %35, 1
  br i1 %36, label %53, label %37, !llvm.loop !12

37:                                               ; preds = %11, %34
  %38 = phi i32 [ %35, %34 ], [ %12, %11 ]
  %39 = mul nsw i32 %38, 3
  %40 = add nsw i32 %39, 1
  store i32 %40, i32* %1, align 4, !tbaa !5
  %41 = call i32 (i8*, ...) @printf(i8* nonnull dereferenceable(1) getelementptr inbounds ([11 x i8], [11 x i8]* @.str.2, i64 0, i64 0), i32 %38, i32 %40)
  %42 = load i32, i32* %1, align 4, !tbaa !5
  %43 = and i32 %42, 1
  %44 = icmp eq i32 %43, 0
  br i1 %44, label %45, label %34

45:                                               ; preds = %37, %45
  %46 = phi i32 [ %50, %45 ], [ %42, %37 ]
  %47 = sdiv i32 %46, 2
  store i32 %47, i32* %1, align 4, !tbaa !5
  %48 = shl nsw i32 %47, 1
  %49 = call i32 (i8*, ...) @printf(i8* nonnull dereferenceable(1) getelementptr inbounds ([9 x i8], [9 x i8]* @.str.1, i64 0, i64 0), i32 %48, i32 %47)
  %50 = load i32, i32* %1, align 4, !tbaa !5
  %51 = and i32 %50, 1
  %52 = icmp eq i32 %51, 0
  br i1 %52, label %45, label %34, !llvm.loop !13

53:                                               ; preds = %34, %11
  %54 = call i32 @puts(i8* nonnull dereferenceable(1) getelementptr inbounds ([4 x i8], [4 x i8]* @str, i64 0, i64 0))
  call void @llvm.lifetime.end.p0i8(i64 4, i8* nonnull %2) #4
  ret i32 0
}

; Function Attrs: argmemonly mustprogress nofree nosync nounwind willreturn
declare void @llvm.lifetime.start.p0i8(i64 immarg, i8* nocapture) #1

; Function Attrs: nofree nounwind
declare noundef i32 @__isoc99_scanf(i8* nocapture noundef readonly, ...) local_unnamed_addr #2

; Function Attrs: nofree nounwind
declare noundef i32 @printf(i8* nocapture noundef readonly, ...) local_unnamed_addr #2

; Function Attrs: argmemonly mustprogress nofree nosync nounwind willreturn
declare void @llvm.lifetime.end.p0i8(i64 immarg, i8* nocapture) #1

; Function Attrs: nofree nounwind
declare noundef i32 @puts(i8* nocapture noundef readonly) local_unnamed_addr #3


!llvm.module.flags = !{!0, !1, !2, !3}
!llvm.ident = !{!4}

!0 = !{i32 1, !"wchar_size", i32 4}
!1 = !{i32 7, !"PIC Level", i32 2}
!2 = !{i32 7, !"PIE Level", i32 2}
!3 = !{i32 7, !"uwtable", i32 1}
!4 = !{!"clang version 13.0.0"}
!5 = !{!6, !6, i64 0}
!6 = !{!"int", !7, i64 0}
!7 = !{!"omnipotent char", !8, i64 0}
!8 = !{!"Simple C/C++ TBAA"}
!9 = distinct !{!9, !10}
!10 = !{!"llvm.loop.mustprogress"}
!11 = distinct !{!11, !10}
!12 = distinct !{!12, !10}
!13 = distinct !{!13, !10}
